; Function Attrs: nounwind uwtable
define internal void @php_hashcontext_free(ptr noundef %0) #0 {
  %2 = getelementptr inbounds i8, ptr %0, i64 -32
  %3 = getelementptr inbounds i8, ptr %0, i64 -24
  %4 = load ptr, ptr %3, align 8, !tbaa !19
  %.not.i = icmp eq ptr %4, null
  br i1 %.not.i, label %6, label %5

5:                                                ; preds = %1
  tail call void @_efree(ptr noundef nonnull %4) #16
  store ptr null, ptr %3, align 8, !tbaa !19
  br label %6

6:                                                ; preds = %5, %1
  %7 = getelementptr inbounds i8, ptr %0, i64 -8
  %8 = load ptr, ptr %7, align 8, !tbaa !87
  %.not10.i = icmp eq ptr %8, null
  br i1 %.not10.i, label %php_hashcontext_dtor.exit, label %9

9:                                                ; preds = %6
  %10 = load ptr, ptr %2, align 8, !tbaa !26
  %11 = getelementptr inbounds nuw i8, ptr %10, i64 72
  %12 = load i64, ptr %11, align 8, !tbaa !83
  tail call void @explicit_bzero(ptr noundef nonnull %8, i64 noundef %12) #16
  %13 = load ptr, ptr %7, align 8, !tbaa !87
  tail call void @_efree(ptr noundef %13) #16
  store ptr null, ptr %7, align 8, !tbaa !87
  br label %php_hashcontext_dtor.exit

php_hashcontext_dtor.exit:                        ; preds = %6, %9
  tail call void @zend_object_std_dtor(ptr noundef nonnull %0) #16
  ret void
}